; Function Attrs: nounwind uwtable
define dso_local ptr @data_key_set(ptr noundef %0, ptr noundef %1) local_unnamed_addr #0 {
  %.not = icmp eq ptr %0, null
  %.not21 = icmp eq ptr %1, null
  %or.cond = or i1 %.not, %.not21
  br i1 %or.cond, label %42, label %3

3:                                                ; preds = %2
  %4 = getelementptr inbounds nuw i8, ptr %0, i64 4
  %5 = load i32, ptr %4, align 4
  %.not22 = icmp eq i32 %5, 65283
  br i1 %.not22, label %6, label %42

6:                                                ; preds = %3
  %7 = getelementptr inbounds nuw i8, ptr %0, i64 8
  %8 = load ptr, ptr %7, align 8
  %9 = getelementptr inbounds nuw i8, ptr %8, i64 8
  %10 = load i64, ptr %9, align 8
  %.not19.i.i = icmp eq i64 %10, 0
  br i1 %.not19.i.i, label %data_key_get.exit.thread, label %11

11:                                               ; preds = %6
  %12 = getelementptr inbounds nuw i8, ptr %8, i64 16
  %.021.i.i = load ptr, ptr %12, align 8
  %.not2022.i.i = icmp eq ptr %.021.i.i, null
  br i1 %.not2022.i.i, label %data_key_get.exit.thread, label %.lr.ph.i.i

.lr.ph.i.i:                                       ; preds = %11, %16
  %.023.i.i = phi ptr [ %.0.i.i, %16 ], [ %.021.i.i, %11 ]
  %13 = getelementptr inbounds nuw i8, ptr %.023.i.i, i64 24
  %14 = load ptr, ptr %13, align 8
  %15 = tail call i32 @xstrcmp(ptr noundef %14, ptr noundef nonnull %1) #16
  %.not.i2.i = icmp eq i32 %15, 0
  br i1 %.not.i2.i, label %data_key_get.exit, label %16

16:                                               ; preds = %.lr.ph.i.i
  %17 = getelementptr inbounds nuw i8, ptr %.023.i.i, i64 8
  %.0.i.i = load ptr, ptr %17, align 8
  %.not20.i.i = icmp eq ptr %.0.i.i, null
  br i1 %.not20.i.i, label %data_key_get.exit.thread, label %.lr.ph.i.i, !llvm.loop !16

data_key_get.exit:                                ; preds = %.lr.ph.i.i
  %18 = getelementptr inbounds nuw i8, ptr %.023.i.i, i64 16
  %19 = load ptr, ptr %18, align 8
  %.not23 = icmp eq ptr %19, null
  br i1 %.not23, label %data_key_get.exit.thread, label %20

20:                                               ; preds = %data_key_get.exit
  %21 = load i64, ptr getelementptr inbounds nuw (i8, ptr @slurm_conf, i64 320), align 8
  %22 = and i64 %21, 256
  %.not25 = icmp eq i64 %22, 0
  br i1 %.not25, label %42, label %23

23:                                               ; preds = %20
  %24 = tail call i32 @get_log_level() #16
  %25 = icmp sgt i32 %24, 3
  br i1 %25, label %26, label %42

26:                                               ; preds = %23
  tail call void (i32, ptr, ...) @log_var(i32 noundef 4, ptr noundef nonnull @.str.18, ptr noundef nonnull @__func__.data_key_set, ptr noundef nonnull %0, ptr noundef nonnull %1, ptr noundef nonnull %19) #16
  br label %42

data_key_get.exit.thread:                         ; preds = %16, %11, %6, %data_key_get.exit
  %27 = tail call ptr @slurm_xcalloc(i64 noundef 1, i64 noundef 16, i1 noundef zeroext true, i1 noundef zeroext false, ptr noundef nonnull @.str, i32 noundef 389, ptr noundef nonnull @__func__.data_new) #16
  store i32 429004959, ptr %27, align 8
  %28 = getelementptr inbounds nuw i8, ptr %27, i64 4
  store i32 65281, ptr %28, align 4
  %29 = load i64, ptr getelementptr inbounds nuw (i8, ptr @slurm_conf, i64 320), align 8
  %30 = and i64 %29, 256
  %.not.i = icmp eq i64 %30, 0
  br i1 %.not.i, label %data_new.exit, label %31

31:                                               ; preds = %data_key_get.exit.thread
  %32 = tail call i32 @get_log_level() #16
  %33 = icmp sgt i32 %32, 3
  br i1 %33, label %34, label %data_new.exit

34:                                               ; preds = %31
  tail call void (i32, ptr, ...) @log_var(i32 noundef 4, ptr noundef nonnull @.str.1, ptr noundef nonnull @__func__.data_new, ptr noundef nonnull %27) #16
  br label %data_new.exit

data_new.exit:                                    ; preds = %data_key_get.exit.thread, %31, %34
  %35 = load ptr, ptr %7, align 8
  tail call fastcc void @_data_list_append(ptr noundef %35, ptr noundef nonnull %27, ptr noundef nonnull %1)
  %36 = load i64, ptr getelementptr inbounds nuw (i8, ptr @slurm_conf, i64 320), align 8
  %37 = and i64 %36, 256
  %.not24 = icmp eq i64 %37, 0
  br i1 %.not24, label %42, label %38

38:                                               ; preds = %data_new.exit
  %39 = tail call i32 @get_log_level() #16
  %40 = icmp sgt i32 %39, 3
  br i1 %40, label %41, label %42

41:                                               ; preds = %38
  tail call void (i32, ptr, ...) @log_var(i32 noundef 4, ptr noundef nonnull @.str.19, ptr noundef nonnull @__func__.data_key_set, ptr noundef nonnull %0, ptr noundef nonnull %1, ptr noundef nonnull %27) #16
  br label %42

42:                                               ; preds = %data_new.exit, %41, %38, %20, %26, %23, %3, %2
  %.0 = phi ptr [ null, %2 ], [ null, %3 ], [ %19, %23 ], [ %19, %26 ], [ %19, %20 ], [ %27, %38 ], [ %27, %41 ], [ %27, %data_new.exit ]
  ret ptr %.0
}